target datalayout = "e-m:e-p270:32:32-p271:32:32-p272:64:64-i64:64-i128:128-f80:128-n8:16:32:64-S128"
target triple = "x86_64-pc-linux-gnu"

; Function Attrs: nounwind uwtable
define internal i32 @BytePrecision(i32 noundef %0) #0 {
  %2 = alloca i32, align 4
  %3 = alloca i32, align 4
  store i32 %0, ptr %2, align 4, !tbaa !3
  call void @llvm.lifetime.start.p0(i64 4, ptr %3) #9
  store i32 4, ptr %3, align 4, !tbaa !3
  br label %4

4:                                                ; preds = %16, %1
  %5 = load i32, ptr %3, align 4, !tbaa !3
  %6 = icmp ne i32 %5, 0
  br i1 %6, label %7, label %19

7:                                                ; preds = %4
  %8 = load i32, ptr %2, align 4, !tbaa !3
  %9 = load i32, ptr %3, align 4, !tbaa !3
  %10 = sub i32 %9, 1
  %11 = mul i32 %10, 8
  %12 = lshr i32 %8, %11
  %13 = icmp ne i32 %12, 0
  br i1 %13, label %14, label %15

14:                                               ; preds = %7
  br label %19

15:                                               ; preds = %7
  br label %16

16:                                               ; preds = %15
  %17 = load i32, ptr %3, align 4, !tbaa !3
  %18 = add i32 %17, -1
  store i32 %18, ptr %3, align 4, !tbaa !3
  br label %4, !llvm.loop !13

19:                                               ; preds = %14, %4
  %20 = load i32, ptr %3, align 4, !tbaa !3
  call void @llvm.lifetime.end.p0(i64 4, ptr %3) #9
  ret i32 %20
}

; Function Attrs: nounwind uwtable
define i32 @SetLength(i32 noundef %0, ptr noundef %1) #0 {
  %3 = alloca i32, align 4
  %4 = alloca ptr, align 8
  %5 = alloca i32, align 4
  %6 = alloca i8, align 1
  store i32 %0, ptr %3, align 4, !tbaa !3
  store ptr %1, ptr %4, align 8, !tbaa !7
  call void @llvm.lifetime.start.p0(i64 4, ptr %5) #9
  store i32 0, ptr %5, align 4, !tbaa !3
  %7 = load i32, ptr %3, align 4, !tbaa !3
  %8 = icmp ult i32 %7, 128
  br i1 %8, label %9, label %22

9:                                                ; preds = %2
  %10 = load ptr, ptr %4, align 8, !tbaa !7
  %11 = icmp ne ptr %10, null
  br i1 %11, label %12, label %19

12:                                               ; preds = %9
  %13 = load i32, ptr %3, align 4, !tbaa !3
  %14 = trunc i32 %13 to i8
  %15 = load ptr, ptr %4, align 8, !tbaa !7
  %16 = load i32, ptr %5, align 4, !tbaa !3
  %17 = zext i32 %16 to i64
  %18 = getelementptr inbounds nuw i8, ptr %15, i64 %17
  store i8 %14, ptr %18, align 1, !tbaa !10
  br label %19

19:                                               ; preds = %12, %9
  %20 = load i32, ptr %5, align 4, !tbaa !3
  %21 = add i32 %20, 1
  store i32 %21, ptr %5, align 4, !tbaa !3
  br label %66

22:                                               ; preds = %2
  call void @llvm.lifetime.start.p0(i64 1, ptr %6) #9
  %23 = load i32, ptr %3, align 4, !tbaa !3
  %24 = call i32 @BytePrecision(i32 noundef %23)
  %25 = trunc i32 %24 to i8
  store i8 %25, ptr %6, align 1, !tbaa !10
  %26 = load ptr, ptr %4, align 8, !tbaa !7
  %27 = icmp ne ptr %26, null
  br i1 %27, label %28, label %37

28:                                               ; preds = %22
  %29 = load i8, ptr %6, align 1, !tbaa !10
  %30 = zext i8 %29 to i32
  %31 = or i32 %30, 128
  %32 = trunc i32 %31 to i8
  %33 = load ptr, ptr %4, align 8, !tbaa !7
  %34 = load i32, ptr %5, align 4, !tbaa !3
  %35 = zext i32 %34 to i64
  %36 = getelementptr inbounds nuw i8, ptr %33, i64 %35
  store i8 %32, ptr %36, align 1, !tbaa !10
  br label %37

37:                                               ; preds = %28, %22
  %38 = load i32, ptr %5, align 4, !tbaa !3
  %39 = add i32 %38, 1
  store i32 %39, ptr %5, align 4, !tbaa !3
  br label %40

40:                                               ; preds = %62, %37
  %41 = load i8, ptr %6, align 1, !tbaa !10
  %42 = zext i8 %41 to i32
  %43 = icmp sgt i32 %42, 0
  br i1 %43, label %44, label %65

44:                                               ; preds = %40
  %45 = load ptr, ptr %4, align 8, !tbaa !7
  %46 = icmp ne ptr %45, null
  br i1 %46, label %47, label %59

47:                                               ; preds = %44
  %48 = load i32, ptr %3, align 4, !tbaa !3
  %49 = load i8, ptr %6, align 1, !tbaa !10
  %50 = zext i8 %49 to i32
  %51 = sub nsw i32 %50, 1
  %52 = mul nsw i32 %51, 8
  %53 = lshr i32 %48, %52
  %54 = trunc i32 %53 to i8
  %55 = load ptr, ptr %4, align 8, !tbaa !7
  %56 = load i32, ptr %5, align 4, !tbaa !3
  %57 = zext i32 %56 to i64
  %58 = getelementptr inbounds nuw i8, ptr %55, i64 %57
  store i8 %54, ptr %58, align 1, !tbaa !10
  br label %59

59:                                               ; preds = %47, %44
  %60 = load i32, ptr %5, align 4, !tbaa !3
  %61 = add i32 %60, 1
  store i32 %61, ptr %5, align 4, !tbaa !3
  br label %62

62:                                               ; preds = %59
  %63 = load i8, ptr %6, align 1, !tbaa !10
  %64 = add i8 %63, -1
  store i8 %64, ptr %6, align 1, !tbaa !10
  br label %40, !llvm.loop !61

65:                                               ; preds = %40
  call void @llvm.lifetime.end.p0(i64 1, ptr %6) #9
  br label %66

66:                                               ; preds = %65, %19
  %67 = load i32, ptr %5, align 4, !tbaa !3
  call void @llvm.lifetime.end.p0(i64 4, ptr %5) #9
  ret i32 %67
}

; Function Attrs: nounwind uwtable
define i32 @SetObjectId(i32 noundef %0, ptr noundef %1) #0 {
  %3 = alloca i32, align 4
  %4 = alloca ptr, align 8
  %5 = alloca i32, align 4
  store i32 %0, ptr %3, align 4, !tbaa !3
  store ptr %1, ptr %4, align 8, !tbaa !7
  call void @llvm.lifetime.start.p0(i64 4, ptr %5) #9
  store i32 0, ptr %5, align 4, !tbaa !3
  %6 = load ptr, ptr %4, align 8, !tbaa !7
  %7 = icmp ne ptr %6, null
  br i1 %7, label %8, label %13

8:                                                ; preds = %2
  %9 = load ptr, ptr %4, align 8, !tbaa !7
  %10 = load i32, ptr %5, align 4, !tbaa !3
  %11 = sext i32 %10 to i64
  %12 = getelementptr inbounds i8, ptr %9, i64 %11
  store i8 6, ptr %12, align 1, !tbaa !10
  br label %13

13:                                               ; preds = %8, %2
  %14 = load i32, ptr %5, align 4, !tbaa !3
  %15 = add nsw i32 %14, 1
  store i32 %15, ptr %5, align 4, !tbaa !3
  %16 = load i32, ptr %3, align 4, !tbaa !3
  %17 = load ptr, ptr %4, align 8, !tbaa !7
  %18 = icmp ne ptr %17, null
  br i1 %18, label %19, label %24

19:                                               ; preds = %13
  %20 = load ptr, ptr %4, align 8, !tbaa !7
  %21 = load i32, ptr %5, align 4, !tbaa !3
  %22 = sext i32 %21 to i64
  %23 = getelementptr inbounds i8, ptr %20, i64 %22
  br label %25

24:                                               ; preds = %13
  br label %25

25:                                               ; preds = %24, %19
  %26 = phi ptr [ %23, %19 ], [ null, %24 ]
  %27 = call i32 @SetLength(i32 noundef %16, ptr noundef %26)
  %28 = load i32, ptr %5, align 4, !tbaa !3
  %29 = add nsw i32 %28, %27
  store i32 %29, ptr %5, align 4, !tbaa !3
  %30 = load i32, ptr %5, align 4, !tbaa !3
  call void @llvm.lifetime.end.p0(i64 4, ptr %5) #9
  ret i32 %30
}