; Function Attrs: nofree norecurse nosync nounwind memory(write, inaccessiblemem: none) uwtable
define range(i32 -2147483647, -2147483648) i32 @SetObjectId(i32 noundef %0, ptr noundef writeonly captures(address_is_null) %1) local_unnamed_addr #10 {
  %.not = icmp eq ptr %1, null
  br i1 %.not, label %3, label %.thread

3:                                                ; preds = %2
  %4 = icmp ult i32 %0, 128
  br i1 %4, label %SetLength.exit, label %.preheader.i.preheader

.thread:                                          ; preds = %2
  store i8 6, ptr %1, align 1, !tbaa !3
  %5 = getelementptr inbounds nuw i8, ptr %1, i64 1
  %6 = icmp ult i32 %0, 128
  br i1 %6, label %7, label %.preheader.i.preheader

.preheader.i.preheader:                           ; preds = %3, %.thread
  %.ph = phi ptr [ %5, %.thread ], [ null, %3 ]
  br label %.preheader.i

7:                                                ; preds = %.thread
  %8 = trunc nuw nsw i32 %0 to i8
  store i8 %8, ptr %5, align 1, !tbaa !3
  br label %SetLength.exit

.preheader.i:                                     ; preds = %.preheader.i.preheader, %12
  %.06.i.i = phi i32 [ %13, %12 ], [ 4, %.preheader.i.preheader ]
  %9 = shl i32 %.06.i.i, 3
  %10 = add nsw i32 %9, -8
  %11 = lshr i32 %0, %10
  %.not5.i.i = icmp eq i32 %11, 0
  br i1 %.not5.i.i, label %12, label %BytePrecision.exit.i

12:                                               ; preds = %.preheader.i
  %13 = add nsw i32 %.06.i.i, -1
  %.not.i.i = icmp eq i32 %13, 0
  br i1 %.not.i.i, label %BytePrecision.exit.i, label %.preheader.i, !llvm.loop !6

BytePrecision.exit.i:                             ; preds = %12, %.preheader.i
  %.0.lcssa.i.i = phi i32 [ %.06.i.i, %.preheader.i ], [ 0, %12 ]
  %14 = trunc i32 %.0.lcssa.i.i to i8
  br i1 %.not, label %15, label %.thread.i

15:                                               ; preds = %BytePrecision.exit.i
  %.not2628.i = icmp eq i8 %14, 0
  br i1 %.not2628.i, label %SetLength.exit, label %.lr.ph.split.us.preheader.i

.thread.i:                                        ; preds = %BytePrecision.exit.i
  %16 = or i8 %14, -128
  store i8 %16, ptr %.ph, align 1, !tbaa !3
  %.not262836.i = icmp eq i8 %14, 0
  br i1 %.not262836.i, label %SetLength.exit, label %.lr.ph.split.i

.lr.ph.split.us.preheader.i:                      ; preds = %15
  %17 = add i32 %.0.lcssa.i.i, 255
  %18 = and i32 %17, 255
  %19 = add nuw nsw i32 %18, 2
  br label %SetLength.exit

.lr.ph.split.i:                                   ; preds = %.thread.i, %.lr.ph.split.i
  %indvars.iv33.i = phi i64 [ %indvars.iv.next34.i, %.lr.ph.split.i ], [ 1, %.thread.i ]
  %indvars.iv.i = phi i32 [ %indvars.iv.next.i, %.lr.ph.split.i ], [ %.0.lcssa.i.i, %.thread.i ]
  %20 = shl nuw nsw i32 %indvars.iv.i, 3
  %21 = add nsw i32 %20, -8
  %22 = lshr i32 %0, %21
  %23 = trunc i32 %22 to i8
  %24 = getelementptr inbounds nuw i8, ptr %.ph, i64 %indvars.iv33.i
  store i8 %23, ptr %24, align 1, !tbaa !3
  %indvars.iv.next34.i = add nuw nsw i64 %indvars.iv33.i, 1
  %indvars.iv.next.i = add nsw i32 %indvars.iv.i, -1
  %.not26.wide.i = icmp eq i32 %indvars.iv.next.i, 0
  br i1 %.not26.wide.i, label %.loopexit.loopexit31.i, label %.lr.ph.split.i, !llvm.loop !48

.loopexit.loopexit31.i:                           ; preds = %.lr.ph.split.i
  %25 = trunc nuw nsw i64 %indvars.iv.next34.i to i32
  br label %SetLength.exit

SetLength.exit:                                   ; preds = %3, %7, %15, %.thread.i, %.lr.ph.split.us.preheader.i, %.loopexit.loopexit31.i
  %.020.i = phi i32 [ 1, %7 ], [ 1, %15 ], [ %19, %.lr.ph.split.us.preheader.i ], [ %25, %.loopexit.loopexit31.i ], [ 1, %.thread.i ], [ 1, %3 ]
  %26 = add nsw i32 %.020.i, 1
  ret i32 %26
}